target datalayout = "e-m:e-p270:32:32-p271:32:32-p272:64:64-i64:64-i128:128-f80:128-n8:16:32:64-S128"
target triple = "x86_64-pc-linux-gnu"

%"struct.cv::MatSize" = type { ptr }
%"struct.cv::MatStep" = type { ptr, [2 x i64] }
%"class.cv::Mat" = type { i32, i32, i32, i32, ptr, ptr, ptr, ptr, ptr, ptr, %"struct.cv::MatSize", %"struct.cv::MatStep" }
%"struct.(anonymous namespace)::BtvRegularizationBody" = type { %"class.cv::ParallelLoopBody", %"class.cv::Mat", %"class.cv::Mat", i32, ptr }
%"class.cv::ParallelLoopBody" = type { ptr }
%"class.cv::Range" = type { i32, i32 }

; Function Attrs: mustprogress nounwind uwtable
define internal noundef float @_ZN12_GLOBAL__N_18diffSignEff(float noundef %0, float noundef %1) #1 {
  %3 = alloca float, align 4
  %4 = alloca float, align 4
  store float %0, ptr %3, align 4
  store float %1, ptr %4, align 4
  %5 = load float, ptr %3, align 4
  %6 = load float, ptr %4, align 4
  %7 = fcmp ogt float %5, %6
  br i1 %7, label %8, label %9

8:                                                ; preds = %2
  br label %14

9:                                                ; preds = %2
  %10 = load float, ptr %3, align 4
  %11 = load float, ptr %4, align 4
  %12 = fcmp olt float %10, %11
  %13 = select i1 %12, float -1.000000e+00, float 0.000000e+00
  br label %14

14:                                               ; preds = %9, %8
  %15 = phi float [ 1.000000e+00, %8 ], [ %13, %9 ]
  ret float %15
}

; Function Attrs: mustprogress nounwind uwtable
define linkonce_odr hidden noundef ptr @_ZN2cv3Mat3ptrIfEEPT_i(ptr noundef nonnull align 8 dereferenceable(96) %0, i32 noundef %1) #1 comdat align 2 {
  %3 = alloca ptr, align 8
  %4 = alloca i32, align 4
  store ptr %0, ptr %3, align 8
  store i32 %1, ptr %4, align 4
  %5 = load ptr, ptr %3, align 8
  %6 = getelementptr inbounds %"class.cv::Mat", ptr %5, i32 0, i32 4
  %7 = load ptr, ptr %6, align 8
  %8 = getelementptr inbounds %"class.cv::Mat", ptr %5, i32 0, i32 11
  %9 = getelementptr inbounds %"struct.cv::MatStep", ptr %8, i32 0, i32 0
  %10 = load ptr, ptr %9, align 8
  %11 = getelementptr inbounds i64, ptr %10, i64 0
  %12 = load i64, ptr %11, align 8
  %13 = load i32, ptr %4, align 4
  %14 = sext i32 %13 to i64
  %15 = mul i64 %12, %14
  %16 = getelementptr inbounds i8, ptr %7, i64 %15
  ret ptr %16
}

; Function Attrs: mustprogress nounwind uwtable
define linkonce_odr hidden noundef ptr @_ZNK2cv3Mat3ptrIfEEPKT_i(ptr noundef nonnull align 8 dereferenceable(96) %0, i32 noundef %1) #1 comdat align 2 {
  %3 = alloca ptr, align 8
  %4 = alloca i32, align 4
  store ptr %0, ptr %3, align 8
  store i32 %1, ptr %4, align 4
  %5 = load ptr, ptr %3, align 8
  %6 = getelementptr inbounds %"class.cv::Mat", ptr %5, i32 0, i32 4
  %7 = load ptr, ptr %6, align 8
  %8 = getelementptr inbounds %"class.cv::Mat", ptr %5, i32 0, i32 11
  %9 = getelementptr inbounds %"struct.cv::MatStep", ptr %8, i32 0, i32 0
  %10 = load ptr, ptr %9, align 8
  %11 = getelementptr inbounds i64, ptr %10, i64 0
  %12 = load i64, ptr %11, align 8
  %13 = load i32, ptr %4, align 4
  %14 = sext i32 %13 to i64
  %15 = mul i64 %12, %14
  %16 = getelementptr inbounds i8, ptr %7, i64 %15
  ret ptr %16
}

; Function Attrs: mustprogress uwtable
define internal void @_ZNK12_GLOBAL__N_121BtvRegularizationBodyIfEclERKN2cv5RangeE(ptr noundef nonnull align 8 dereferenceable(216) %0, ptr noundef nonnull align 4 dereferenceable(8) %1) unnamed_addr #0 align 2 {
  %3 = alloca ptr, align 8
  %4 = alloca ptr, align 8
  %5 = alloca i32, align 4
  %6 = alloca ptr, align 8
  %7 = alloca ptr, align 8
  %8 = alloca i32, align 4
  %9 = alloca float, align 4
  %10 = alloca i32, align 4
  %11 = alloca i32, align 4
  %12 = alloca ptr, align 8
  %13 = alloca ptr, align 8
  %14 = alloca i32, align 4
  store ptr %0, ptr %3, align 8
  store ptr %1, ptr %4, align 8
  %15 = load ptr, ptr %3, align 8
  %16 = load ptr, ptr %4, align 8
  %17 = getelementptr inbounds %"class.cv::Range", ptr %16, i32 0, i32 0
  %18 = load i32, ptr %17, align 4
  store i32 %18, ptr %5, align 4
  br label %19

19:                                               ; preds = %118, %2
  %20 = load i32, ptr %5, align 4
  %21 = load ptr, ptr %4, align 8
  %22 = getelementptr inbounds %"class.cv::Range", ptr %21, i32 0, i32 1
  %23 = load i32, ptr %22, align 4
  %24 = icmp slt i32 %20, %23
  br i1 %24, label %25, label %121

25:                                               ; preds = %19
  %26 = getelementptr inbounds %"struct.(anonymous namespace)::BtvRegularizationBody", ptr %15, i32 0, i32 1
  %27 = load i32, ptr %5, align 4
  %28 = call noundef ptr @_ZNK2cv3Mat3ptrIfEEPKT_i(ptr noundef nonnull align 8 dereferenceable(96) %26, i32 noundef %27)
  store ptr %28, ptr %6, align 8
  %29 = getelementptr inbounds %"struct.(anonymous namespace)::BtvRegularizationBody", ptr %15, i32 0, i32 2
  %30 = load i32, ptr %5, align 4
  %31 = call noundef ptr @_ZN2cv3Mat3ptrIfEEPT_i(ptr noundef nonnull align 8 dereferenceable(96) %29, i32 noundef %30)
  store ptr %31, ptr %7, align 8
  %32 = getelementptr inbounds %"struct.(anonymous namespace)::BtvRegularizationBody", ptr %15, i32 0, i32 3
  %33 = load i32, ptr %32, align 8
  store i32 %33, ptr %8, align 4
  br label %34

34:                                               ; preds = %114, %25
  %35 = load i32, ptr %8, align 4
  %36 = getelementptr inbounds %"struct.(anonymous namespace)::BtvRegularizationBody", ptr %15, i32 0, i32 1
  %37 = getelementptr inbounds %"class.cv::Mat", ptr %36, i32 0, i32 3
  %38 = load i32, ptr %37, align 4
  %39 = getelementptr inbounds %"struct.(anonymous namespace)::BtvRegularizationBody", ptr %15, i32 0, i32 3
  %40 = load i32, ptr %39, align 8
  %41 = sub nsw i32 %38, %40
  %42 = icmp slt i32 %35, %41
  br i1 %42, label %43, label %117

43:                                               ; preds = %34
  %44 = load ptr, ptr %6, align 8
  %45 = load i32, ptr %8, align 4
  %46 = sext i32 %45 to i64
  %47 = getelementptr inbounds float, ptr %44, i64 %46
  %48 = load float, ptr %47, align 4
  store float %48, ptr %9, align 4
  store i32 0, ptr %10, align 4
  store i32 0, ptr %11, align 4
  br label %49

49:                                               ; preds = %110, %43
  %50 = load i32, ptr %10, align 4
  %51 = getelementptr inbounds %"struct.(anonymous namespace)::BtvRegularizationBody", ptr %15, i32 0, i32 3
  %52 = load i32, ptr %51, align 8
  %53 = icmp sle i32 %50, %52
  br i1 %53, label %54, label %113

54:                                               ; preds = %49
  %55 = getelementptr inbounds %"struct.(anonymous namespace)::BtvRegularizationBody", ptr %15, i32 0, i32 1
  %56 = load i32, ptr %5, align 4
  %57 = load i32, ptr %10, align 4
  %58 = sub nsw i32 %56, %57
  %59 = call noundef ptr @_ZNK2cv3Mat3ptrIfEEPKT_i(ptr noundef nonnull align 8 dereferenceable(96) %55, i32 noundef %58)
  store ptr %59, ptr %12, align 8
  %60 = getelementptr inbounds %"struct.(anonymous namespace)::BtvRegularizationBody", ptr %15, i32 0, i32 1
  %61 = load i32, ptr %5, align 4
  %62 = load i32, ptr %10, align 4
  %63 = add nsw i32 %61, %62
  %64 = call noundef ptr @_ZNK2cv3Mat3ptrIfEEPKT_i(ptr noundef nonnull align 8 dereferenceable(96) %60, i32 noundef %63)
  store ptr %64, ptr %13, align 8
  %65 = getelementptr inbounds %"struct.(anonymous namespace)::BtvRegularizationBody", ptr %15, i32 0, i32 3
  %66 = load i32, ptr %65, align 8
  store i32 %66, ptr %14, align 4
  br label %67

67:                                               ; preds = %104, %54
  %68 = load i32, ptr %14, align 4
  %69 = load i32, ptr %10, align 4
  %70 = add nsw i32 %68, %69
  %71 = icmp sge i32 %70, 0
  br i1 %71, label %72, label %109

72:                                               ; preds = %67
  %73 = getelementptr inbounds %"struct.(anonymous namespace)::BtvRegularizationBody", ptr %15, i32 0, i32 4
  %74 = load ptr, ptr %73, align 8
  %75 = load i32, ptr %11, align 4
  %76 = sext i32 %75 to i64
  %77 = getelementptr inbounds float, ptr %74, i64 %76
  %78 = load float, ptr %77, align 4
  %79 = load float, ptr %9, align 4
  %80 = load ptr, ptr %13, align 8
  %81 = load i32, ptr %8, align 4
  %82 = load i32, ptr %14, align 4
  %83 = add nsw i32 %81, %82
  %84 = sext i32 %83 to i64
  %85 = getelementptr inbounds float, ptr %80, i64 %84
  %86 = load float, ptr %85, align 4
  %87 = call noundef float @_ZN12_GLOBAL__N_18diffSignEff(float noundef %79, float noundef %86)
  %88 = load ptr, ptr %12, align 8
  %89 = load i32, ptr %8, align 4
  %90 = load i32, ptr %14, align 4
  %91 = sub nsw i32 %89, %90
  %92 = sext i32 %91 to i64
  %93 = getelementptr inbounds float, ptr %88, i64 %92
  %94 = load float, ptr %93, align 4
  %95 = load float, ptr %9, align 4
  %96 = call noundef float @_ZN12_GLOBAL__N_18diffSignEff(float noundef %94, float noundef %95)
  %97 = fsub float %87, %96
  %98 = load ptr, ptr %7, align 8
  %99 = load i32, ptr %8, align 4
  %100 = sext i32 %99 to i64
  %101 = getelementptr inbounds float, ptr %98, i64 %100
  %102 = load float, ptr %101, align 4
  %103 = call float @llvm.fmuladd.f32(float %78, float %97, float %102)
  store float %103, ptr %101, align 4
  br label %104

104:                                              ; preds = %72
  %105 = load i32, ptr %14, align 4
  %106 = add nsw i32 %105, -1
  store i32 %106, ptr %14, align 4
  %107 = load i32, ptr %11, align 4
  %108 = add nsw i32 %107, 1
  store i32 %108, ptr %11, align 4
  br label %67, !llvm.loop !31

109:                                              ; preds = %67
  br label %110

110:                                              ; preds = %109
  %111 = load i32, ptr %10, align 4
  %112 = add nsw i32 %111, 1
  store i32 %112, ptr %10, align 4
  br label %49, !llvm.loop !32

113:                                              ; preds = %49
  br label %114

114:                                              ; preds = %113
  %115 = load i32, ptr %8, align 4
  %116 = add nsw i32 %115, 1
  store i32 %116, ptr %8, align 4
  br label %34, !llvm.loop !33

117:                                              ; preds = %34
  br label %118

118:                                              ; preds = %117
  %119 = load i32, ptr %5, align 4
  %120 = add nsw i32 %119, 1
  store i32 %120, ptr %5, align 4
  br label %19, !llvm.loop !34

121:                                              ; preds = %19
  ret void
}