; Function Attrs: mustprogress nofree norecurse nosync nounwind memory(readwrite, inaccessiblemem: none) uwtable
define internal void @_ZNK12_GLOBAL__N_121BtvRegularizationBodyIfEclERKN2cv5RangeE(ptr nocapture noundef nonnull readonly align 8 dereferenceable(216) %0, ptr nocapture noundef nonnull readonly align 4 dereferenceable(8) %1) unnamed_addr #21 align 2 {
  %3 = load i32, ptr %1, align 4
  %4 = getelementptr inbounds i8, ptr %1, i64 4
  %5 = load i32, ptr %4, align 4
  %6 = icmp slt i32 %3, %5
  br i1 %6, label %.lr.ph50, label %._crit_edge51

.lr.ph50:                                         ; preds = %2
  %7 = getelementptr inbounds i8, ptr %0, i64 24
  %8 = getelementptr inbounds i8, ptr %0, i64 80
  %9 = getelementptr inbounds i8, ptr %0, i64 120
  %10 = getelementptr inbounds i8, ptr %0, i64 176
  %11 = getelementptr inbounds i8, ptr %0, i64 200
  %12 = getelementptr inbounds i8, ptr %0, i64 20
  %13 = getelementptr inbounds i8, ptr %0, i64 208
  %14 = sext i32 %3 to i64
  %.pre = load i32, ptr %11, align 8
  %.pre68 = load i32, ptr %12, align 4
  br label %15

15:                                               ; preds = %.lr.ph50, %._crit_edge46
  %16 = phi i32 [ %5, %.lr.ph50 ], [ %85, %._crit_edge46 ]
  %17 = phi i32 [ %.pre, %.lr.ph50 ], [ %86, %._crit_edge46 ]
  %18 = phi i32 [ %.pre68, %.lr.ph50 ], [ %87, %._crit_edge46 ]
  %19 = phi i32 [ %.pre, %.lr.ph50 ], [ %88, %._crit_edge46 ]
  %20 = phi i32 [ %.pre68, %.lr.ph50 ], [ %89, %._crit_edge46 ]
  %21 = phi i32 [ %.pre, %.lr.ph50 ], [ %90, %._crit_edge46 ]
  %indvars.iv65 = phi i64 [ %14, %.lr.ph50 ], [ %indvars.iv.next66, %._crit_edge46 ]
  %22 = load ptr, ptr %7, align 8
  %23 = load ptr, ptr %8, align 8
  %24 = load i64, ptr %23, align 8
  %25 = mul i64 %24, %indvars.iv65
  %26 = getelementptr inbounds i8, ptr %22, i64 %25
  %27 = load ptr, ptr %9, align 8
  %28 = load ptr, ptr %10, align 8
  %29 = load i64, ptr %28, align 8
  %30 = mul i64 %29, %indvars.iv65
  %31 = getelementptr inbounds i8, ptr %27, i64 %30
  %32 = sub nsw i32 %20, %21
  %33 = icmp slt i32 %21, %32
  br i1 %33, label %.lr.ph45, label %._crit_edge46

.lr.ph45:                                         ; preds = %15
  %34 = icmp slt i32 %19, 0
  br i1 %34, label %._crit_edge46, label %.lr.ph45.split.preheader

.lr.ph45.split.preheader:                         ; preds = %.lr.ph45
  %35 = sext i32 %21 to i64
  br label %.lr.ph45.split

.lr.ph45.split:                                   ; preds = %.lr.ph45.split.preheader, %._crit_edge42
  %36 = phi i32 [ %17, %.lr.ph45.split.preheader ], [ %80, %._crit_edge42 ]
  %37 = phi i32 [ %18, %.lr.ph45.split.preheader ], [ %81, %._crit_edge42 ]
  %38 = phi i32 [ %19, %.lr.ph45.split.preheader ], [ %80, %._crit_edge42 ]
  %indvars.iv62 = phi i64 [ %35, %.lr.ph45.split.preheader ], [ %indvars.iv.next63, %._crit_edge42 ]
  %39 = getelementptr inbounds float, ptr %26, i64 %indvars.iv62
  %40 = load float, ptr %39, align 4
  %.not37 = icmp slt i32 %38, 0
  br i1 %.not37, label %._crit_edge42, label %.lr.ph41

.lr.ph41:                                         ; preds = %.lr.ph45.split
  %41 = getelementptr inbounds float, ptr %31, i64 %indvars.iv62
  br label %42

42:                                               ; preds = %.lr.ph41, %._crit_edge
  %43 = phi i32 [ %36, %.lr.ph41 ], [ %78, %._crit_edge ]
  %44 = phi i32 [ %38, %.lr.ph41 ], [ %79, %._crit_edge ]
  %indvars.iv58 = phi i64 [ 0, %.lr.ph41 ], [ %indvars.iv.next59, %._crit_edge ]
  %.03339 = phi i32 [ 0, %.lr.ph41 ], [ %.1.lcssa, %._crit_edge ]
  %45 = sub nsw i64 %indvars.iv65, %indvars.iv58
  %46 = load ptr, ptr %7, align 8
  %47 = load ptr, ptr %8, align 8
  %48 = load i64, ptr %47, align 8
  %49 = mul i64 %48, %45
  %50 = getelementptr inbounds i8, ptr %46, i64 %49
  %51 = xor i64 %indvars.iv58, -1
  %52 = sext i32 %44 to i64
  %53 = icmp sgt i64 %52, %51
  br i1 %53, label %.lr.ph.preheader, label %._crit_edge

.lr.ph.preheader:                                 ; preds = %42
  %54 = add nsw i64 %indvars.iv58, %indvars.iv65
  %55 = mul i64 %48, %54
  %56 = getelementptr inbounds i8, ptr %46, i64 %55
  %57 = sext i32 %.03339 to i64
  %.pre69 = load float, ptr %41, align 4
  %invariant.gep = getelementptr float, ptr %56, i64 %indvars.iv62
  br label %.lr.ph

.lr.ph:                                           ; preds = %.lr.ph.preheader, %.lr.ph
  %58 = phi float [ %.pre69, %.lr.ph.preheader ], [ %75, %.lr.ph ]
  %indvars.iv53 = phi i64 [ %57, %.lr.ph.preheader ], [ %indvars.iv.next54, %.lr.ph ]
  %indvars.iv = phi i64 [ %52, %.lr.ph.preheader ], [ %indvars.iv.next, %.lr.ph ]
  %59 = load ptr, ptr %13, align 8
  %60 = getelementptr inbounds float, ptr %59, i64 %indvars.iv53
  %61 = load float, ptr %60, align 4
  %gep = getelementptr float, ptr %invariant.gep, i64 %indvars.iv
  %62 = load float, ptr %gep, align 4
  %63 = fcmp ogt float %40, %62
  %64 = fcmp olt float %40, %62
  %65 = select i1 %64, float -1.000000e+00, float 0.000000e+00
  %66 = select i1 %63, float 1.000000e+00, float %65
  %67 = sub nsw i64 %indvars.iv62, %indvars.iv
  %68 = getelementptr inbounds float, ptr %50, i64 %67
  %69 = load float, ptr %68, align 4
  %70 = fcmp ogt float %69, %40
  %71 = fcmp olt float %69, %40
  %72 = select i1 %71, float -1.000000e+00, float 0.000000e+00
  %73 = select i1 %70, float 1.000000e+00, float %72
  %74 = fsub float %66, %73
  %75 = tail call float @llvm.fmuladd.f32(float %61, float %74, float %58)
  store float %75, ptr %41, align 4
  %indvars.iv.next = add nsw i64 %indvars.iv, -1
  %indvars.iv.next54 = add nsw i64 %indvars.iv53, 1
  %76 = icmp sgt i64 %indvars.iv.next, %51
  br i1 %76, label %.lr.ph, label %._crit_edge.loopexit, !llvm.loop !87

._crit_edge.loopexit:                             ; preds = %.lr.ph
  %77 = trunc nsw i64 %indvars.iv.next54 to i32
  %.pre70 = load i32, ptr %11, align 8
  %.pre73 = sext i32 %.pre70 to i64
  br label %._crit_edge

._crit_edge:                                      ; preds = %._crit_edge.loopexit, %42
  %.pre-phi = phi i64 [ %.pre73, %._crit_edge.loopexit ], [ %52, %42 ]
  %78 = phi i32 [ %.pre70, %._crit_edge.loopexit ], [ %43, %42 ]
  %79 = phi i32 [ %.pre70, %._crit_edge.loopexit ], [ %44, %42 ]
  %.1.lcssa = phi i32 [ %77, %._crit_edge.loopexit ], [ %.03339, %42 ]
  %indvars.iv.next59 = add nuw nsw i64 %indvars.iv58, 1
  %.not.not = icmp slt i64 %indvars.iv58, %.pre-phi
  br i1 %.not.not, label %42, label %._crit_edge42.loopexit, !llvm.loop !88

._crit_edge42.loopexit:                           ; preds = %._crit_edge
  %.pre71 = load i32, ptr %12, align 4
  br label %._crit_edge42

._crit_edge42:                                    ; preds = %._crit_edge42.loopexit, %.lr.ph45.split
  %80 = phi i32 [ %78, %._crit_edge42.loopexit ], [ %36, %.lr.ph45.split ]
  %81 = phi i32 [ %.pre71, %._crit_edge42.loopexit ], [ %37, %.lr.ph45.split ]
  %indvars.iv.next63 = add nsw i64 %indvars.iv62, 1
  %82 = sub nsw i32 %81, %80
  %83 = sext i32 %82 to i64
  %84 = icmp slt i64 %indvars.iv.next63, %83
  br i1 %84, label %.lr.ph45.split, label %._crit_edge46.loopexit52, !llvm.loop !89

._crit_edge46.loopexit52:                         ; preds = %._crit_edge42
  %.pre72 = load i32, ptr %4, align 4
  br label %._crit_edge46

._crit_edge46:                                    ; preds = %.lr.ph45, %._crit_edge46.loopexit52, %15
  %85 = phi i32 [ %.pre72, %._crit_edge46.loopexit52 ], [ %16, %15 ], [ %16, %.lr.ph45 ]
  %86 = phi i32 [ %80, %._crit_edge46.loopexit52 ], [ %17, %15 ], [ %17, %.lr.ph45 ]
  %87 = phi i32 [ %81, %._crit_edge46.loopexit52 ], [ %18, %15 ], [ %18, %.lr.ph45 ]
  %88 = phi i32 [ %80, %._crit_edge46.loopexit52 ], [ %19, %15 ], [ %19, %.lr.ph45 ]
  %89 = phi i32 [ %81, %._crit_edge46.loopexit52 ], [ %20, %15 ], [ %20, %.lr.ph45 ]
  %90 = phi i32 [ %80, %._crit_edge46.loopexit52 ], [ %21, %15 ], [ %19, %.lr.ph45 ]
  %indvars.iv.next66 = add nsw i64 %indvars.iv65, 1
  %91 = sext i32 %85 to i64
  %92 = icmp slt i64 %indvars.iv.next66, %91
  br i1 %92, label %15, label %._crit_edge51, !llvm.loop !90

._crit_edge51:                                    ; preds = %._crit_edge46, %2
  ret void
}